(dp0
S'cccma/canesm2'
p1
(dp2
S'.'
p3
(dp4
S'rsds'
p5
(lp6
I185001
aI200512
asS'rsuscs'
p7
(lp8
I185001
aI200512
asS'rsdscs'
p9
(lp10
I185001
aI200512
asS'rlutcs'
p11
(lp12
I185001
aI200512
asS'rsutcs'
p13
(lp14
I185001
aI200512
asS'rldscs'
p15
(lp16
I185001
aI200512
asS'pr'
p17
(lp18
I185001
aI200512
asS'rlut'
p19
(lp20
I185001
aI200512
asS'rlus'
p21
(lp22
I185001
aI200512
asS'tos'
p23
(lp24
I185001
aI200512
asS'ts'
p25
(lp26
I185001
aI200512
asS'sic'
p27
(lp28
I185001
aI200512
asS'zos'
p29
(lp30
I185001
aI200512
asS'clt'
p31
(lp32
I185001
aI200512
asS'vas'
p33
(lp34
I185001
aI200512
asS'uas'
p35
(lp36
I185001
aI200512
asS'ta'
p37
(lp38
I185001
aI200512
asS'lai'
p39
(lp40
I185001
aI200512
asS'rsdt'
p41
(lp42
I185001
aI200512
asS'hur'
p43
(lp44
I185001
aI200512
asS'hus'
p45
(lp46
I185001
aI200512
asS'clivi'
p47
(lp48
I185001
aI200512
asS'cct'
p49
(lp50
I185001
aI200512
asS'sfcWind'
p51
(lp52
I185001
aI200512
asS'rlds'
p53
(lp54
I185001
aI200512
asS'rsus'
p55
(lp56
I185001
aI200512
asS'wap'
p57
(lp58
I185001
aI200512
asS'rsut'
p59
(lp60
I185001
aI200512
assS'regridded'
p61
(dp62
S'clw'
p63
(lp64
I199501
aI200512
asS'cli'
p65
(lp66
I199501
aI200512
asS'cl'
p67
(lp68
I185001
aI200512
asssS'wcrp/isccp'
p69
(dp70
g3
(dp71
S'cttisccpunweighted'
p72
(lp73
I198307
aI200806
asS'pctisccpunweighted'
p74
(lp75
I198307
aI200806
asS'cltisccp'
p76
(lp77
I198307
aI200806
asS'pctisccp'
p78
(lp79
I198307
aI200806
asS'albisccp'
p80
(lp81
I198307
aI200806
asS'albisccpunweighted'
p82
(lp83
I198307
aI200806
asS'clisccp'
p84
(lp85
I198307
aI200806
asS'cttisccp'
p86
(lp87
I198307
aI200806
asssS'giss/e2-h'
p88
(dp89
g3
(dp90
S'hur'
p91
(lp92
I195101
aI200512
asS'cl'
p93
(lp94
I195101
aI200512
asS'rsuscs'
p95
(lp96
I185001
aI200512
asS'rsdscs'
p97
(lp98
I185001
aI200512
asS'zg'
p99
(lp100
I195101
aI200512
asS'rlutcs'
p101
(lp102
I185001
aI200512
asS'rsutcs'
p103
(lp104
I185001
aI200512
asS'rldscs'
p105
(lp106
I185001
aI200512
asS'pr'
p107
(lp108
I195101
aI200512
asS'rlut'
p109
(lp110
I185001
aI200512
asS'rlus'
p111
(lp112
I185001
aI200512
asS'rlds'
p113
(lp114
I185001
aI200512
asS'ts'
p115
(lp116
I195101
aI200512
asS'clt'
p117
(lp118
I195101
aI200512
asS'vas'
p119
(lp120
I195101
aI200512
asS'uas'
p121
(lp122
I195101
aI200512
asS'ta'
p123
(lp124
I195101
aI200512
asS'rsdt'
p125
(lp126
I185001
aI200512
asS'rsds'
p127
(lp128
I185001
aI200512
asS'hus'
p129
(lp130
I195101
aI200512
asS'cct'
p131
(lp132
I195101
aI200512
asS'prw'
p133
(lp134
I195101
aI200512
asS'sfcWind'
p135
(lp136
I185001
aI200512
asS'tos'
p137
(lp138
I195101
aI200512
asS'rsus'
p139
(lp140
I185001
aI200512
asS'wap'
p141
(lp142
I195101
aI200512
asS'rsut'
p143
(lp144
I185001
aI200512
assg61
(dp145
S'clw'
p146
(lp147
I195101
aI200512
asS'cli'
p148
(lp149
I195101
aI200512
asS'cl'
p150
(lp151
I195101
aI200512
asssS'wrf/pbl-ysu'
p152
(dp153
g3
(dp154
S'pr'
p155
(lp156
I200401
aI200412
asS'rlut'
p157
(lp158
I200401
aI200412
asS'th'
p159
(lp160
I200401
aI200412
asS'cl'
p161
(lp162
I200401
aI200412
asS'va'
p163
(lp164
I200401
aI200412
asS'w'
p165
(lp166
I200401
aI200412
asS'hus'
p167
(lp168
I200401
aI200412
asS'ua'
p169
(lp170
I200401
aI200412
asS'rsut'
p171
(lp172
I200401
aI200412
asssS'mpi/esm-lr'
p173
(dp174
g3
(dp175
S'va'
p176
(lp177
I185001
aI200512
asS'rsds'
p178
(lp179
I185001
aI200512
asS'prc'
p180
(lp181
I185001
aI200512
asS'tas'
p182
(lp183
I185001
aI200512
asS'rsuscs'
p184
(lp185
I185001
aI200512
asS'rsdscs'
p186
(lp187
I185001
aI200512
asS'zg'
p188
(lp189
I185001
aI200512
asS'hfss'
p190
(lp191
I185001
aI200512
asS'parasolRefl'
p192
(lp193
I197901
aI200512
asS'rlutcs'
p194
(lp195
I185001
aI200512
asS'rsutcs'
p196
(lp197
I185001
aI200512
asS'hfls'
p198
(lp199
I185001
aI200512
asS'co2mass'
p200
(lp201
I185001
aI200512
asS'rldscs'
p202
(lp203
I185001
aI200512
asS'sfcWind'
p204
(lp205
I185001
aI200512
asS'clmcalipso'
p206
(lp207
I197901
aI200512
asS'ps'
p208
(lp209
I185001
aI200512
asS'cltcalipso'
p210
(lp211
I197901
aI200512
asS'rlus'
p212
(lp213
I185001
aI200512
asS'clcalipso'
p214
(lp215
I197901
aI200512
asS'tos'
p216
(lp217
I185001
aI200512
asS'fco2nat'
p218
(lp219
I185001
aI200512
asS'ts'
p220
(lp221
I185001
aI200512
asS'sic'
p222
(lp223
I185001
aI200512
asS'prw'
p224
(lp225
I185001
aI200512
asS'zos'
p226
(lp227
I185001
aI200512
asS'pctisccp'
p228
(lp229
I197901
aI200512
asS'clt'
p230
(lp231
I185001
aI200512
asS'vas'
p232
(lp233
I185001
aI200512
asS'uas'
p234
(lp235
I185001
aI200512
asS'clisccp'
p236
(lp237
I197901
aI200512
asS'wap'
p238
(lp239
I185001
aI200512
asS'pr'
p240
(lp241
I185001
aI200512
asS'tauv'
p242
(lp243
I185001
aI200512
asS'lai'
p244
(lp245
I185001
aI200512
asS'psl'
p246
(lp247
I185001
aI200512
asS'cltisccp'
p248
(lp249
I197901
aI200512
asS'tauu'
p250
(lp251
I185001
aI200512
asS'rlut'
p252
(lp253
I185001
aI200512
asS'rsdt'
p254
(lp255
I185001
aI200512
asS'albisccp'
p256
(lp257
I197901
aI200512
asS'hur'
p258
(lp259
I185001
aI200512
asS'hus'
p260
(lp261
I185001
aI200512
asS'tro3'
p262
(lp263
I185001
aI200512
asS'clivi'
p264
(lp265
I185001
aI200512
asS'rtmt'
p266
(lp267
I185001
aI200512
asS'cct'
p268
(lp269
I185001
aI200512
asS'evspsbl'
p270
(lp271
I185001
aI200512
asS'fco2antt'
p272
(lp273
I185001
aI200512
asS'tasmin'
p274
(lp275
I185001
aI200512
asS'rsut'
p276
(lp277
I185001
aI200512
asS'clwvi'
p278
(lp279
I185001
aI200512
asS'rlds'
p280
(lp281
I185001
aI200512
asS'tasmax'
p282
(lp283
I185001
aI200512
asS'rsus'
p284
(lp285
I185001
aI200512
asS'clhcalipso'
p286
(lp287
I197901
aI200512
asS'ta'
p288
(lp289
I185001
aI200512
asS'ua'
p290
(lp291
I185001
aI200512
asS'cllcalipso'
p292
(lp293
I197901
aI200512
asS'prsn'
p294
(lp295
I185001
aI200512
assg61
(dp296
S'tos'
p297
(lp298
I197901
aI200512
asS'zos'
p299
(lp300
I197901
aI200512
asS'cli'
p301
(lp302
I198001
aI200512
asS'clw'
p303
(lp304
I198001
aI200512
asS'cl'
p305
(lp306
I198001
aI200512
asssS'ukmo/hadgem2-es'
p307
(dp308
g3
(dp309
S'rsds'
p310
(lp311
I185912
aI200511
asS'tas'
p312
(lp313
I198412
aI200511
asS'rsuscs'
p314
(lp315
I185912
aI200511
asS'uas'
p316
(lp317
I185912
aI200511
asS'zg'
p318
(lp319
I198412
aI200511
asS'rlutcs'
p320
(lp321
I185912
aI200511
asS'rsutcs'
p322
(lp323
I185912
aI200511
asS'rldscs'
p324
(lp325
I185912
aI200511
asS'pr'
p326
(lp327
I185912
aI200511
asS'rlut'
p328
(lp329
I185912
aI200511
asS'cli'
p330
(lp331
I195912
aI200511
asS'rlus'
p332
(lp333
I185912
aI200511
asS'rlds'
p334
(lp335
I185912
aI200511
asS'cl'
p336
(lp337
I198412
aI200511
asS'ts'
p338
(lp339
I185912
aI200511
asS'sic'
p340
(lp341
I195912
aI200512
asS'clt'
p342
(lp343
I185912
aI200511
asS'vas'
p344
(lp345
I185912
aI200511
asS'rsdscs'
p346
(lp347
I185912
aI200511
asS'ta'
p348
(lp349
I195912
aI200511
asS'lai'
p350
(lp351
I185912
aI200511
asS'rsdt'
p352
(lp353
I185912
aI200511
asS'hur'
p354
(lp355
I198412
aI200511
asS'hus'
p356
(lp357
I185912
aI200511
asS'clivi'
p358
(lp359
I198012
aI200511
asS'wap'
p360
(lp361
I198412
aI200511
asS'sfcWind'
p362
(lp363
I185912
aI200511
asS'rsus'
p364
(lp365
I185912
aI200511
asS'od550aer'
p366
(lp367
I198412
aI200511
asS'rsut'
p368
(lp369
I185912
aI200511
assg61
(dp370
S'clw'
p371
(lp372
I198412
aI200511
asS'cli'
p373
(lp374
I198412
aI200511
asS'cl'
p375
(lp376
I198412
aI200511
asssS'nasa/quikscat'
p377
(dp378
g3
(dp379
S'uasNobs'
p380
(lp381
I199908
aI200910
asS'vasStderr'
p382
(lp383
I199908
aI200910
asS'uas'
p384
(lp385
I199908
aI200910
asS'uasStderr'
p386
(lp387
I199908
aI200910
asS'vas'
p388
(lp389
I199908
aI200910
asS'sfcWind'
p390
(lp391
I199908
aI200910
asS'sfcWindStderr'
p392
(lp393
I199908
aI200910
asS'sfcWindNobs'
p394
(lp395
I199908
aI200910
asS'vasNobs'
p396
(lp397
I199908
aI200910
asssS'nasa/ceres'
p398
(dp399
g3
(dp400
S'rsuscs'
p401
(lp402
I200003
aI201002
asS'rlut'
p403
(lp404
I200003
aI201206
asS'rlus'
p405
(lp406
I200003
aI201002
asS'rsdt'
p407
(lp408
I200003
aI201206
asS'rlds'
p409
(lp410
I200003
aI201002
asS'rsdscs'
p411
(lp412
I200003
aI201002
asS'rlutcs'
p413
(lp414
I200003
aI201206
asS'rsutcs'
p415
(lp416
I200003
aI201206
asS'rsds'
p417
(lp418
I200003
aI201002
asS'rsus'
p419
(lp420
I200003
aI201002
asS'rldscs'
p421
(lp422
I200003
aI201002
asS'rsut'
p423
(lp424
I200003
aI201206
asssS'wrf/co-kf'
p425
(dp426
g3
(dp427
S'pr'
p428
(lp429
I200401
aI200412
asS'rlut'
p430
(lp431
I200401
aI200412
asg165
(lp432
I200401
aI200412
asS'cl'
p433
(lp434
I200401
aI200412
asS'va'
p435
(lp436
I200401
aI200412
asS'th'
p437
(lp438
I200401
aI200412
asS'hus'
p439
(lp440
I200401
aI200412
asS'ua'
p441
(lp442
I200401
aI200412
asS'rsut'
p443
(lp444
I200401
aI200412
asssS'wrf/st'
p445
(dp446
g3
(dp447
S'pr'
p448
(lp449
I200401
aI200412
asS'va'
p450
(lp451
I200401
aI200412
asS'th'
p452
(lp453
I200401
aI200412
asS'cl'
p454
(lp455
I200401
aI200412
asS'rlut'
p456
(lp457
I200401
aI200412
asg165
(lp458
I200401
aI200412
asS'hus'
p459
(lp460
I200401
aI200412
asS'ua'
p461
(lp462
I200401
aI200412
asS'rsut'
p463
(lp464
I200401
aI200412
asssS'bcc/csm1-1'
p465
(dp466
g3
(dp467
S'va'
p468
(lp469
I185001
aI201212
asS'ci'
p470
(lp471
I185001
aI201212
asS'sci'
p472
(lp473
I185001
aI201212
asS'rsds'
p474
(lp475
I185001
aI201212
asS'prc'
p476
(lp477
I185001
aI201212
asS'cl'
p478
(lp479
I185001
aI201212
asS'rsuscs'
p480
(lp481
I185001
aI201212
asS'rsdscs'
p482
(lp483
I185001
aI201212
asS'huss'
p484
(lp485
I185001
aI201212
asS'hfss'
p486
(lp487
I185001
aI201212
asS'rlutcs'
p488
(lp489
I185001
aI201212
asS'evspsbl'
p490
(lp491
I185001
aI201212
asS'hfls'
p492
(lp493
I185001
aI201212
asS'co2mass'
p494
(lp495
I185001
aI201212
asS'rldscs'
p496
(lp497
I185001
aI201212
asS'ccb'
p498
(lp499
I185001
aI201212
asS'pr'
p500
(lp501
I185001
aI201212
asS'ps'
p502
(lp503
I185001
aI201212
asS'n2oglobal'
p504
(lp505
I185001
aI201212
asS'cli'
p506
(lp507
I185001
aI201212
asS'rlus'
p508
(lp509
I185001
aI201212
asS'sit'
p510
(lp511
I185001
aI201212
asS'rlds'
p512
(lp513
I185001
aI201212
asS'tas'
p514
(lp515
I185001
aI201212
asS'fco2nat'
p516
(lp517
I185001
aI201212
asS'ts'
p518
(lp519
I185001
aI201212
asS'sic'
p520
(lp521
I185001
aI201212
asS'clt'
p522
(lp523
I185001
aI201212
asS'vas'
p524
(lp525
I185001
aI201212
asS'clw'
p526
(lp527
I185001
aI201212
asS'uas'
p528
(lp529
I185001
aI201212
asS'ta'
p530
(lp531
I185001
aI201212
asS'zg'
p532
(lp533
I185001
aI201212
asS'tasmin'
p534
(lp535
I185001
aI201212
asS'psl'
p536
(lp537
I185001
aI201212
asS'rlut'
p538
(lp539
I185001
aI201212
asS'hurs'
p540
(lp541
I185001
aI201212
asS'rsdt'
p542
(lp543
I185001
aI201212
asS'ch4global'
p544
(lp545
I185001
aI201212
asS'hur'
p546
(lp547
I185001
aI201212
asS'hus'
p548
(lp549
I185001
aI201212
asS'tro3'
p550
(lp551
I185001
aI201212
asS'clivi'
p552
(lp553
I185001
aI201212
asS'rsutcs'
p554
(lp555
I185001
aI201212
asS'mc'
p556
(lp557
I185001
aI201212
asS'rtmt'
p558
(lp559
I185001
aI201212
asS'cct'
p560
(lp561
I185001
aI201212
asS'prw'
p562
(lp563
I185001
aI201212
asS'tauv'
p564
(lp565
I185001
aI201212
asS'clwvi'
p566
(lp567
I185001
aI201212
asS'tauu'
p568
(lp569
I185001
aI201212
asS'tasmax'
p570
(lp571
I185001
aI201212
asS'rsus'
p572
(lp573
I185001
aI201212
asS'tos'
p574
(lp575
I185001
aI201212
asS'wap'
p576
(lp577
I185001
aI201212
asS'ua'
p578
(lp579
I185001
aI201212
asS'rsut'
p580
(lp581
I185001
aI201212
asS'prsn'
p582
(lp583
I185001
aI201212
asssS'giss/e2-r'
p584
(dp585
g3
(dp586
S'hur'
p587
(lp588
I195101
aI200512
asS'tas'
p589
(lp590
I197601
aI200512
asS'rsuscs'
p591
(lp592
I187601
aI200512
asS'uas'
p593
(lp594
I187601
aI200512
asS'zg'
p595
(lp596
I195101
aI200512
asS'rlutcs'
p597
(lp598
I187601
aI200512
asS'prw'
p599
(lp600
I190101
aI200512
asS'rldscs'
p601
(lp602
I187601
aI200512
asS'pr'
p603
(lp604
I190101
aI200512
asS'rlut'
p605
(lp606
I187601
aI200512
asS'rlus'
p607
(lp608
I187601
aI200512
asS'tos'
p609
(lp610
I195101
aI200512
asS'ts'
p611
(lp612
I190101
aI200512
asS'sic'
p613
(lp614
I185001
aI200512
asS'zos'
p615
(lp616
I187601
aI200512
asS'clt'
p617
(lp618
I190101
aI200512
asS'vas'
p619
(lp620
I187601
aI200512
asS'rsdscs'
p621
(lp622
I187601
aI200512
asS'ta'
p623
(lp624
I190101
aI200512
asS'rsdt'
p625
(lp626
I187601
aI200512
asS'rsds'
p627
(lp628
I187601
aI200512
asS'hus'
p629
(lp630
I190101
aI200512
asS'clivi'
p631
(lp632
I190101
aI200512
asS'cct'
p633
(lp634
I197601
aI200512
asS'rsutcs'
p635
(lp636
I187601
aI200512
asS'sfcWind'
p637
(lp638
I187601
aI200512
asS'rlds'
p639
(lp640
I187601
aI200512
asS'rsus'
p641
(lp642
I187601
aI200512
asS'wap'
p643
(lp644
I195101
aI200512
asS'rsut'
p645
(lp646
I187601
aI200512
assg61
(dp647
S'clw'
p648
(lp649
I199501
aI200512
asS'cli'
p650
(lp651
I200101
aI200512
asS'cl'
p652
(lp653
I195101
aI200512
asssS'wrf/mp-mor'
p654
(dp655
g3
(dp656
S'pr'
p657
(lp658
I200401
aI200412
asS'rlut'
p659
(lp660
I200401
aI200412
asS'th'
p661
(lp662
I200401
aI200412
asS'cl'
p663
(lp664
I200401
aI200412
asS'va'
p665
(lp666
I200401
aI200412
asg165
(lp667
I200401
aI200412
asS'hus'
p668
(lp669
I200401
aI200412
asS'ua'
p670
(lp671
I200401
aI200412
asS'rsut'
p672
(lp673
I200401
aI200412
asssS'nasa/amsre'
p674
(dp675
g3
(dp676
S'tosNobs'
p677
(lp678
I200206
aI201012
asS'tos'
p679
(lp680
I200206
aI201012
asS'tosStderr'
p681
(lp682
I200206
aI201012
asssS'nasa/aviso'
p683
(dp684
g3
(dp685
S'zos'
p686
(lp687
I199210
aI201012
asssS'wrf/pbl-nn2'
p688
(dp689
g3
(dp690
S'pr'
p691
(lp692
I200401
aI200412
asS'rlut'
p693
(lp694
I200401
aI200412
asS'th'
p695
(lp696
I200401
aI200412
asS'cl'
p697
(lp698
I200401
aI200412
asS'va'
p699
(lp700
I200401
aI200412
asg165
(lp701
I200401
aI200412
asS'hus'
p702
(lp703
I200401
aI200412
asS'ua'
p704
(lp705
I200401
aI200412
asS'rsut'
p706
(lp707
I200401
aI200412
asssS'uoe/atsr'
p708
(dp709
g3
(dp710
S'tos'
p711
(lp712
I199701
aI201112
asssS'gfdl/cm3'
p713
(dp714
g3
(dp715
S'hur'
p716
(lp717
I198901
aI200812
asS'rsuscs'
p718
(lp719
I197901
aI200812
asS'rsdscs'
p720
(lp721
I197901
aI200812
asS'zg'
p722
(lp723
I197901
aI200812
asS'rlutcs'
p724
(lp725
I197901
aI200812
asS'rsutcs'
p726
(lp727
I197901
aI200812
asS'rldscs'
p728
(lp729
I197901
aI200812
asS'pr'
p730
(lp731
I197901
aI200812
asS'rlut'
p732
(lp733
I197901
aI200812
asS'rlus'
p734
(lp735
I197901
aI200812
asS'rlds'
p736
(lp737
I197901
aI200812
asS'ts'
p738
(lp739
I197901
aI200812
asS'clt'
p740
(lp741
I197901
aI200812
asS'vas'
p742
(lp743
I197901
aI200812
asS'uas'
p744
(lp745
I197901
aI200812
asS'wap'
p746
(lp747
I198901
aI200812
asS'rsdt'
p748
(lp749
I197901
aI200812
asS'rsds'
p750
(lp751
I197901
aI200812
asS'hus'
p752
(lp753
I198901
aI200812
asS'cct'
p754
(lp755
I197901
aI200812
asS'prw'
p756
(lp757
I197901
aI199312
asS'sfcWind'
p758
(lp759
I197901
aI200812
asS'rsus'
p760
(lp761
I197901
aI200812
asS'ta'
p762
(lp763
I197901
aI200812
asS'rsut'
p764
(lp765
I197901
aI200812
assg61
(dp766
S'clw'
p767
(lp768
I197901
aI200812
asS'cli'
p769
(lp770
I197901
aI200812
asS'cl'
p771
(lp772
I197901
aI200812
asssS'nasa/tes'
p773
(dp774
g3
(dp775
S'tro3'
p776
(lp777
I200507
aI200912
asssS'ncep/gldas'
p778
(dp779
g3
(dp780
S'mrso1'
p781
(lp782
I197901
aI201806
asS'mrso2'
p783
(lp784
I197901
aI201806
asS'mrso3'
p785
(lp786
I197901
aI201806
asssS'cnrm/cm5'
p787
(dp788
g3
(dp789
S'va'
p790
(lp791
I197901
aI200812
asS'rsds'
p792
(lp793
I197901
aI200812
asS'cltcalipso'
p794
(lp795
I200801
aI200812
asS'tas'
p796
(lp797
I197901
aI200812
asS'rsuscs'
p798
(lp799
I197901
aI200812
asS'clcalipso2'
p800
(lp801
I200801
aI200812
asS'zg'
p802
(lp803
I197901
aI200812
asS'hfss'
p804
(lp805
I197901
aI200812
asS'parasolRefl'
p806
(lp807
I200801
aI200812
asS'rlutcs'
p808
(lp809
I197901
aI200812
asS'evspsbl'
p810
(lp811
I197901
aI200812
asS'prsn'
p812
(lp813
I197901
aI200812
asS'rldscs'
p814
(lp815
I197901
aI200812
asS'clcalipso'
p816
(lp817
I200801
aI200812
asS'pr'
p818
(lp819
I197901
aI200812
asS'ps'
p820
(lp821
I197901
aI200812
asS'prc'
p822
(lp823
I197901
aI200812
asS'rlus'
p824
(lp825
I197901
aI200812
asS'rlds'
p826
(lp827
I197901
aI200812
asS'ts'
p828
(lp829
I197901
aI200812
asS'clt'
p830
(lp831
I197901
aI200812
asS'vas'
p832
(lp833
I197901
aI200812
asS'uas'
p834
(lp835
I197901
aI200812
asS'wap'
p836
(lp837
I197901
aI200812
asS'rsdscs'
p838
(lp839
I197901
aI200812
asS'huss'
p840
(lp841
I197901
aI200812
asS'clwvi'
p842
(lp843
I197901
aI200812
asS'psl'
p844
(lp845
I197901
aI200812
asS'rlut'
p846
(lp847
I197901
aI200812
asS'hurs'
p848
(lp849
I197901
aI200812
asS'cfadDbze94'
p850
(lp851
I200801
aI200812
asS'rsdt'
p852
(lp853
I197901
aI200812
asS'hur'
p854
(lp855
I197901
aI200812
asS'hus'
p856
(lp857
I197901
aI200812
asS'tro3'
p858
(lp859
I197901
aI200812
asS'cfadLidarsr532'
p860
(lp861
I200801
aI200812
asS'sbl'
p862
(lp863
I197901
aI200812
asS'clivi'
p864
(lp865
I197901
aI200812
asS'rsutcs'
p866
(lp867
I197901
aI200812
asS'rtmt'
p868
(lp869
I197901
aI200812
asS'cltlidarradar'
p870
(lp871
I200801
aI200812
asS'prw'
p872
(lp873
I197901
aI200812
asS'hfls'
p874
(lp875
I197901
aI200812
asS'sfcWind'
p876
(lp877
I197901
aI200812
asS'tauv'
p878
(lp879
I197901
aI200812
asS'cllcalipso'
p880
(lp881
I200801
aI200812
asS'tasmin'
p882
(lp883
I197901
aI200812
asS'tauu'
p884
(lp885
I197901
aI200812
asS'tasmax'
p886
(lp887
I197901
aI200812
asS'rsus'
p888
(lp889
I197901
aI200812
asS'clhcalipso'
p890
(lp891
I200801
aI200812
asS'ta'
p892
(lp893
I197901
aI200812
asS'ua'
p894
(lp895
I197901
aI200812
asS'rsut'
p896
(lp897
I197901
aI200812
asS'clmcalipso'
p898
(lp899
I200801
aI200812
assg61
(dp900
S'clw'
p901
(lp902
I197901
aI200812
asS'cli'
p903
(lp904
I197901
aI200812
asS'cl'
p905
(lp906
I197901
aI200812
asssS'iap/fgoals-s2'
p907
(dp908
g3
(dp909
S'va'
p910
(lp911
I197901
aI200812
asS'rsds'
p912
(lp913
I197901
aI200812
asS'prc'
p914
(lp915
I197901
aI200812
asS'tas'
p916
(lp917
I197901
aI200812
asS'prsn'
p918
(lp919
I197901
aI200812
asS'rsuscs'
p920
(lp921
I197901
aI200812
asS'uas'
p922
(lp923
I197901
aI200812
asS'zg'
p924
(lp925
I197901
aI200812
asS'hfss'
p926
(lp927
I197901
aI200812
asS'rlutcs'
p928
(lp929
I197901
aI200812
asS'prw'
p930
(lp931
I197901
aI200812
asS'hfls'
p932
(lp933
I197901
aI200812
asS'rldscs'
p934
(lp935
I197901
aI200812
asS'pr'
p936
(lp937
I197901
aI200812
asS'ps'
p938
(lp939
I197901
aI200812
asS'rlus'
p940
(lp941
I197901
aI200812
asS'rlds'
p942
(lp943
I197901
aI200812
asS'ts'
p944
(lp945
I197901
aI200812
asS'clt'
p946
(lp947
I197901
aI200812
asS'vas'
p948
(lp949
I197901
aI200812
asS'rsdscs'
p950
(lp951
I197901
aI200812
asS'ta'
p952
(lp953
I197901
aI200812
asS'huss'
p954
(lp955
I197901
aI200812
asS'clwvi'
p956
(lp957
I197901
aI200812
asS'psl'
p958
(lp959
I197901
aI200812
asS'rlut'
p960
(lp961
I197901
aI200812
asS'hurs'
p962
(lp963
I197901
aI200812
asS'rsdt'
p964
(lp965
I197901
aI200812
asS'hur'
p966
(lp967
I197901
aI200812
asS'hus'
p968
(lp969
I197901
aI200812
asS'clivi'
p970
(lp971
I197901
aI200812
asS'rsutcs'
p972
(lp973
I197901
aI200812
asS'mc'
p974
(lp975
I197901
aI200812
asS'cct'
p976
(lp977
I197901
aI200812
asS'evspsbl'
p978
(lp979
I197901
aI200812
asS'sfcWind'
p980
(lp981
I197901
aI200812
asS'tauv'
p982
(lp983
I197901
aI200812
asS'tasmin'
p984
(lp985
I197901
aI200812
asS'tauu'
p986
(lp987
I197901
aI200812
asS'tasmax'
p988
(lp989
I197901
aI200812
asS'rsus'
p990
(lp991
I197901
aI200812
asS'wap'
p992
(lp993
I197901
aI200812
asS'ua'
p994
(lp995
I197901
aI200812
asS'rsut'
p996
(lp997
I197901
aI200812
asS'ccb'
p998
(lp999
I197901
aI200812
assg61
(dp1000
S'clw'
p1001
(lp1002
I197901
aI200812
asS'cli'
p1003
(lp1004
I197901
aI200812
asS'cl'
p1005
(lp1006
I197901
aI200812
asssS'ukmo/hadgem2-a'
p1007
(dp1008
g3
(dp1009
S'hur'
p1010
(lp1011
I197809
aI200812
asS'cl'
p1012
(lp1013
I197809
aI200812
asS'rsuscs'
p1014
(lp1015
I197809
aI200812
asS'uas'
p1016
(lp1017
I197809
aI200812
asS'zg'
p1018
(lp1019
I197809
aI200812
asS'rlutcs'
p1020
(lp1021
I197809
aI200812
asS'rsutcs'
p1022
(lp1023
I197809
aI200812
asS'rldscs'
p1024
(lp1025
I197809
aI200812
asS'pr'
p1026
(lp1027
I197809
aI200812
asS'rlut'
p1028
(lp1029
I197809
aI200812
asS'rlus'
p1030
(lp1031
I197809
aI200812
asS'rlds'
p1032
(lp1033
I197809
aI200812
asS'ts'
p1034
(lp1035
I197809
aI200812
asS'clt'
p1036
(lp1037
I197809
aI200812
asS'vas'
p1038
(lp1039
I197809
aI200812
asS'rsdscs'
p1040
(lp1041
I197809
aI200812
asS'wap'
p1042
(lp1043
I197809
aI200812
asS'hurs'
p1044
(lp1045
I197809
aI200812
asS'rsdt'
p1046
(lp1047
I197809
aI200812
asS'ta'
p1048
(lp1049
I197809
aI200811
asS'rsds'
p1050
(lp1051
I197809
aI200812
asS'hus'
p1052
(lp1053
I197809
aI200811
asS'cct'
p1054
(lp1055
I197809
aI200812
asS'prw'
p1056
(lp1057
I197809
aI200811
asS'sfcWind'
p1058
(lp1059
I197809
aI200812
asS'rsus'
p1060
(lp1061
I197809
aI200812
asS'od550aer'
p1062
(lp1063
I197809
aI200811
asS'rsut'
p1064
(lp1065
I197809
aI200812
assg61
(dp1066
S'clw'
p1067
(lp1068
I197809
aI200811
asS'cli'
p1069
(lp1070
I197809
aI200811
asS'cl'
p1071
(lp1072
I197809
aI200812
asssS'nasa/trmm'
p1073
(dp1074
g3
(dp1075
S'pr'
p1076
(lp1077
I199801
aI201803
asssS'inm/cm4'
p1078
(dp1079
g3
(dp1080
S'clivi'
p1081
(lp1082
I185001
aI200512
asS'rlut'
p1083
(lp1084
I185001
aI200512
asS'cli'
p1085
(lp1086
I197001
aI200512
asS'rlus'
p1087
(lp1088
I185001
aI200512
asS'rsdt'
p1089
(lp1090
I185001
aI200512
asS'rtmt'
p1091
(lp1092
I185001
aI200512
asS'rlds'
p1093
(lp1094
I185001
aI200512
asS'rsdscs'
p1095
(lp1096
I185001
aI200512
asS'tas'
p1097
(lp1098
I185001
aI200512
asS'tos'
p1099
(lp1100
I185001
aI200512
asS'pr'
p1101
(lp1102
I185001
aI200512
asS'sic'
p1103
(lp1104
I185001
aI200512
asS'rlutcs'
p1105
(lp1106
I185001
aI200512
asS'rsutcs'
p1107
(lp1108
I185001
aI200512
asS'rsuscs'
p1109
(lp1110
I185001
aI200512
asS'ts'
p1111
(lp1112
I185001
aI200512
asS'rsds'
p1113
(lp1114
I185001
aI200512
asS'rsus'
p1115
(lp1116
I185001
aI200512
asS'clt'
p1117
(lp1118
I185001
aI200512
asS'rldscs'
p1119
(lp1120
I185001
aI200512
asS'rsut'
p1121
(lp1122
I185001
aI200512
asssS'tmp1/co-tie'
p1123
(dp1124
g3
(dp1125
g165
(lp1126
I200401
aI200412
asssS'argo/argo'
p1127
(dp1128
g3
(dp1129
S'ot'
p1130
(lp1131
I200101
aI201305
asS'os'
p1132
(lp1133
I200101
aI201305
asssS'nasa/modis'
p1134
(dp1135
g3
(dp1136
S'lai'
p1137
(lp1138
I200002
aI200912
asS'cltStddev'
p1139
(lp1140
I200003
aI201109
asS'cltNobs'
p1141
(lp1142
I200003
aI201109
asS'ctpday'
p1143
(lp1144
I200003
aI201512
asS'cttday'
p1145
(lp1146
I200003
aI201512
asS'tauiday'
p1147
(lp1148
I200003
aI201512
asS'cltiday'
p1149
(lp1150
I200003
aI201512
asS'lst'
p1151
(lp1152
I200003
aI201212
asS'taulday'
p1153
(lp1154
I200003
aI201512
asS'reflciday'
p1155
(lp1156
I200003
aI201512
asS'cltlday'
p1157
(lp1158
I200003
aI201512
asS'clt'
p1159
(lp1160
I200003
aI201109
asS'cltday'
p1161
(lp1162
I200003
aI201512
asS'taucday'
p1163
(lp1164
I200003
aI201512
asS'od550aer'
p1165
(lp1166
I200003
aI201212
asssS'miroc/miroc4h'
p1167
(dp1168
g3
(dp1169
S'clivi'
p1170
(lp1171
I196101
aI200512
asS'rlut'
p1172
(lp1173
I197101
aI200512
asS'tas'
p1174
(lp1175
I198101
aI200512
asS'rlds'
p1176
(lp1177
I197101
aI200512
asS'ts'
p1178
(lp1179
I198101
aI200512
asS'sic'
p1180
(lp1181
I196101
aI200512
asS'rsds'
p1182
(lp1183
I196101
aI200512
asS'wap'
p1184
(lp1185
I200101
aI200512
asS'rsut'
p1186
(lp1187
I198101
aI200512
asS'ta'
p1188
(lp1189
I198601
aI200512
asssS'nasa/calipso'
p1190
(dp1191
g3
(dp1192
S'clccalipso'
p1193
(lp1194
I20060601
aI20101231
asS'cltcalipso'
p1195
(lp1196
I20060601
aI20101231
asS'cfad2Lidarsr532'
p1197
(lp1198
I20060601
aI20101231
asS'clcalipso'
p1199
(lp1200
I20060601
aI20101231
asS'uncalipso'
p1201
(lp1202
I20060601
aI20101231
asS'clrcalipso'
p1203
(lp1204
I20060601
aI20101231
asS'clmcalipso'
p1205
(lp1206
I20060601
aI20101231
asS'clhcalipso'
p1207
(lp1208
I20060601
aI20101231
asS'cfadLidarsr532'
p1209
(lp1210
I20060601
aI20101231
asS'cllcalipso'
p1211
(lp1212
I20060601
aI20101231
asssS'cmcc/cm'
p1213
(dp1214
g3
(dp1215
S'va'
p1216
(lp1217
I197901
aI200812
asS'hur'
p1218
(lp1219
I197901
aI200812
asS'prc'
p1220
(lp1221
I197901
aI200812
asS'tas'
p1222
(lp1223
I197901
aI200812
asS'uas'
p1224
(lp1225
I197901
aI200812
asS'zg'
p1226
(lp1227
I197901
aI200812
asS'hfss'
p1228
(lp1229
I197901
aI200812
asS'rlutcs'
p1230
(lp1231
I197901
aI200812
asS'prw'
p1232
(lp1233
I197901
aI200812
asS'prsn'
p1234
(lp1235
I197901
aI200812
asS'pr'
p1236
(lp1237
I197901
aI200812
asS'rlut'
p1238
(lp1239
I197901
aI200812
asS'rlus'
p1240
(lp1241
I197901
aI200812
asS'rlds'
p1242
(lp1243
I197901
aI200812
asS'ts'
p1244
(lp1245
I197901
aI200812
asS'clt'
p1246
(lp1247
I197901
aI200812
asS'vas'
p1248
(lp1249
I197901
aI200812
asS'wap'
p1250
(lp1251
I197901
aI200812
asS'clwvi'
p1252
(lp1253
I197901
aI200812
asS'psl'
p1254
(lp1255
I197901
aI200812
asS'ps'
p1256
(lp1257
I197901
aI200812
asS'rsdt'
p1258
(lp1259
I197901
aI200812
asS'rsds'
p1260
(lp1261
I197901
aI200812
asS'hus'
p1262
(lp1263
I197901
aI200812
asS'clivi'
p1264
(lp1265
I197901
aI200812
asS'rsutcs'
p1266
(lp1267
I197901
aI200812
asS'rtmt'
p1268
(lp1269
I197901
aI200812
asS'cct'
p1270
(lp1271
I197901
aI200812
asS'evspsbl'
p1272
(lp1273
I197901
aI200812
asS'sfcWind'
p1274
(lp1275
I197901
aI200812
asS'tauv'
p1276
(lp1277
I197901
aI200812
asS'tasmin'
p1278
(lp1279
I197901
aI200812
asS'tauu'
p1280
(lp1281
I197901
aI200812
asS'tasmax'
p1282
(lp1283
I197901
aI200812
asS'rsus'
p1284
(lp1285
I197901
aI200812
asS'ta'
p1286
(lp1287
I197901
aI200812
asS'ua'
p1288
(lp1289
I197901
aI200812
asS'rsut'
p1290
(lp1291
I197901
aI200812
asS'hfls'
p1292
(lp1293
I197901
aI200812
assg61
(dp1294
S'clw'
p1295
(lp1296
I198901
aI200812
asS'cli'
p1297
(lp1298
I198901
aI200812
asS'cl'
p1299
(lp1300
I199901
aI200812
asssS'noaa/nodc'
p1301
(dp1302
g3
(dp1303
S'ohc2000'
p1304
(lp1305
I200501
aI201212
asS'ohc700'
p1306
(lp1307
I195501
aI201212
asssS'nasa/airs'
p1308
(dp1309
g3
(dp1310
S'husStderr'
p1311
(lp1312
I200209
aI201105
asS'tas'
p1313
(lp1314
I200209
aI201609
asS'taStderr'
p1315
(lp1316
I200209
aI201105
asS'husNobs'
p1317
(lp1318
I200209
aI201105
asS'hus'
p1319
(lp1320
I200209
aI201105
asS'ta'
p1321
(lp1322
I200209
aI201105
asS'taNobs'
p1323
(lp1324
I200209
aI201105
asssS'nasa/misr'
p1325
(dp1326
g3
(dp1327
S'od550aer'
p1328
(lp1329
I200003
aI201212
asssS'wrf/co-tie'
p1330
(dp1331
g3
(dp1332
S'pr'
p1333
(lp1334
I200401
aI200412
asS'rlut'
p1335
(lp1336
I200401
aI200412
asS'th'
p1337
(lp1338
I200401
aI200412
asS'cl'
p1339
(lp1340
I200401
aI200412
asS'va'
p1341
(lp1342
I200401
aI200412
asg165
(lp1343
I200401
aI200412
asS'hus'
p1344
(lp1345
I200401
aI200412
asS'ua'
p1346
(lp1347
I200401
aI200412
asS'rsut'
p1348
(lp1349
I200401
aI200412
asssS'gfdl/esm2g'
p1350
(dp1351
g3
(dp1352
S'tas'
p1353
(lp1354
I200601
aI210012
asS'uas'
p1355
(lp1356
I199101
aI200512
asS'zg'
p1357
(lp1358
I198601
aI200512
asS'rlutcs'
p1359
(lp1360
I186101
aI200512
asS'rsutcs'
p1361
(lp1362
I199101
aI200512
asS'rldscs'
p1363
(lp1364
I186101
aI200512
asS'pr'
p1365
(lp1366
I195101
aI200512
asS'rlut'
p1367
(lp1368
I186101
aI200512
asS'rlus'
p1369
(lp1370
I186101
aI200512
asS'tos'
p1371
(lp1372
I186101
aI200512
asS'ts'
p1373
(lp1374
I195101
aI200512
asS'zos'
p1375
(lp1376
I186101
aI200512
asS'clt'
p1377
(lp1378
I195101
aI200512
asS'vas'
p1379
(lp1380
I199101
aI200512
asS'ta'
p1381
(lp1382
I194601
aI200512
asS'lai'
p1383
(lp1384
I186101
aI200512
asS'rsdt'
p1385
(lp1386
I186101
aI200512
asS'hur'
p1387
(lp1388
I198601
aI200512
asS'hus'
p1389
(lp1390
I197901
aI200512
asS'cct'
p1391
(lp1392
I197101
aI200512
asS'wap'
p1393
(lp1394
I198601
aI200512
asS'prw'
p1395
(lp1396
I195101
aI199512
asS'sfcWind'
p1397
(lp1398
I199101
aI200512
asS'rlds'
p1399
(lp1400
I186101
aI200512
asS'od550aer'
p1401
(lp1402
I198101
aI200512
asS'rsut'
p1403
(lp1404
I199101
aI200512
assg61
(dp1405
S'tos'
p1406
(lp1407
I199601
aI200512
asS'zos'
p1408
(lp1409
I199601
aI200512
asS'cli'
p1410
(lp1411
I199101
aI200512
asS'clw'
p1412
(lp1413
I199101
aI200512
asS'cl'
p1414
(lp1415
I197601
aI200512
asssS'nasa/mls'
p1416
(dp1417
g3
(dp1418
S'cli'
p1419
(lp1420
I200408
aI201512
asS'taStderr'
p1421
(lp1422
I200408
aI201012
asS'husStderr'
p1423
(lp1424
I200408
aI201012
asS'husNobs'
p1425
(lp1426
I200408
aI201012
asS'hus'
p1427
(lp1428
I200408
aI201012
asS'ta'
p1429
(lp1430
I200408
aI201012
asS'taNobs'
p1431
(lp1432
I200408
aI201012
asssS'mri/cgcm3'
p1433
(dp1434
g3
(dp1435
S'va'
p1436
(lp1437
I197001
aI200512
asS'rsds'
p1438
(lp1439
I185001
aI200512
asS'prc'
p1440
(lp1441
I185001
aI200512
asS'tas'
p1442
(lp1443
I185001
aI200512
asS'rsuscs'
p1444
(lp1445
I185001
aI200512
asS'rsdscs'
p1446
(lp1447
I185001
aI200512
asS'huss'
p1448
(lp1449
I185001
aI200512
asS'hfss'
p1450
(lp1451
I185001
aI200512
asS'rlutcs'
p1452
(lp1453
I185001
aI200512
asS'prw'
p1454
(lp1455
I185001
aI200512
asS'hfls'
p1456
(lp1457
I185001
aI200512
asS'rldscs'
p1458
(lp1459
I185001
aI200512
asS'pr'
p1460
(lp1461
I185001
aI200512
asS'rlut'
p1462
(lp1463
I185001
aI200512
asS'rlus'
p1464
(lp1465
I185001
aI200512
asS'tos'
p1466
(lp1467
I185001
aI200512
asS'ts'
p1468
(lp1469
I185001
aI200512
asS'od550aer'
p1470
(lp1471
I185001
aI200512
asS'zos'
p1472
(lp1473
I185001
aI200512
asS'clt'
p1474
(lp1475
I185001
aI200512
asS'vas'
p1476
(lp1477
I185001
aI200512
asS'uas'
p1478
(lp1479
I185001
aI200512
asS'clisccp'
p1480
(lp1481
I197901
aI201002
asS'ta'
p1482
(lp1483
I197001
aI200512
asS'zg'
p1484
(lp1485
I197001
aI200512
asS'hurs'
p1486
(lp1487
I185001
aI200512
asS'rsdt'
p1488
(lp1489
I185001
aI200512
asS'hur'
p1490
(lp1491
I185001
aI200512
asS'hus'
p1492
(lp1493
I185001
aI200512
asS'clivi'
p1494
(lp1495
I185001
aI200512
asS'cct'
p1496
(lp1497
I185001
aI200512
asS'rsutcs'
p1498
(lp1499
I185001
aI200512
asS'clwvi'
p1500
(lp1501
I185001
aI200512
asS'rlds'
p1502
(lp1503
I185001
aI200512
asS'rsus'
p1504
(lp1505
I185001
aI200512
asS'wap'
p1506
(lp1507
I197001
aI200512
asS'ua'
p1508
(lp1509
I197001
aI200512
asS'rsut'
p1510
(lp1511
I185001
aI200512
assg61
(dp1512
S'tos'
p1513
(lp1514
I197901
aI200512
asS'clw'
p1515
(lp1516
I198001
aI200512
asS'zos'
p1517
(lp1518
I197901
aI200512
asS'cli'
p1519
(lp1520
I198001
aI200512
asS'cl'
p1521
(lp1522
I198001
aI200512
asssS'ipsl/cm5a-lr'
p1523
(dp1524
g3
(dp1525
S'va'
p1526
(lp1527
I197901
aI200912
asS'ci'
p1528
(lp1529
I197901
aI200912
asS'hur'
p1530
(lp1531
I197901
aI200912
asS'prc'
p1532
(lp1533
I197901
aI200912
asS'tas'
p1534
(lp1535
I197901
aI200912
asS'prsn'
p1536
(lp1537
I197901
aI200912
asS'rsuscs'
p1538
(lp1539
I197901
aI200912
asS'rsdscs'
p1540
(lp1541
I197901
aI200912
asS'zg'
p1542
(lp1543
I197901
aI200912
asS'hfss'
p1544
(lp1545
I197901
aI200912
asS'rlutcs'
p1546
(lp1547
I197901
aI200912
asS'rsutcs'
p1548
(lp1549
I197901
aI200912
asS'hfls'
p1550
(lp1551
I197901
aI200912
asS'rldscs'
p1552
(lp1553
I197901
aI200912
asS'pr'
p1554
(lp1555
I197901
aI200912
asS'rlut'
p1556
(lp1557
I197901
aI200912
asS'tasmin'
p1558
(lp1559
I197901
aI200912
asS'rlus'
p1560
(lp1561
I197901
aI200912
asS'rlds'
p1562
(lp1563
I197901
aI200912
asS'ts'
p1564
(lp1565
I197901
aI200912
asS'prw'
p1566
(lp1567
I197901
aI200912
asS'clt'
p1568
(lp1569
I197901
aI200912
asS'vas'
p1570
(lp1571
I197901
aI200912
asS'uas'
p1572
(lp1573
I197901
aI200912
asS'od550aer'
p1574
(lp1575
I197901
aI200912
asS'huss'
p1576
(lp1577
I197901
aI200912
asS'lai'
p1578
(lp1579
I197901
aI200912
asS'psl'
p1580
(lp1581
I197901
aI200912
asS'ps'
p1582
(lp1583
I197901
aI200912
asS'hurs'
p1584
(lp1585
I197901
aI200912
asS'rsdt'
p1586
(lp1587
I197901
aI200912
asS'ta'
p1588
(lp1589
I197901
aI200912
asS'rsds'
p1590
(lp1591
I197901
aI200912
asS'hus'
p1592
(lp1593
I197901
aI200912
asS'tro3'
p1594
(lp1595
I197901
aI200912
asS'clivi'
p1596
(lp1597
I197901
aI200912
asS'mc'
p1598
(lp1599
I197901
aI200912
asS'rtmt'
p1600
(lp1601
I197901
aI200912
asS'cct'
p1602
(lp1603
I197901
aI200912
asS'evspsbl'
p1604
(lp1605
I197901
aI200912
asS'sfcWind'
p1606
(lp1607
I197901
aI200912
asS'tauv'
p1608
(lp1609
I197901
aI200912
asS'clwvi'
p1610
(lp1611
I197901
aI200912
asS'tauu'
p1612
(lp1613
I197901
aI200912
asS'tasmax'
p1614
(lp1615
I197901
aI200912
asS'rsus'
p1616
(lp1617
I197901
aI200912
asS'wap'
p1618
(lp1619
I197901
aI200912
asS'ua'
p1620
(lp1621
I197901
aI200912
asS'rsut'
p1622
(lp1623
I197901
aI200912
asS'ccb'
p1624
(lp1625
I197901
aI200912
assg61
(dp1626
S'clw'
p1627
(lp1628
I197901
aI200912
asS'cli'
p1629
(lp1630
I197901
aI200912
asS'cl'
p1631
(lp1632
I197901
aI200912
asssS'ncar/cam5'
p1633
(dp1634
g3
(dp1635
S'va'
p1636
(lp1637
I195001
aI200512
asS'od550aer'
p1638
(lp1639
I185001
aI200512
asS'tas'
p1640
(lp1641
I185001
aI200512
asS'rsuscs'
p1642
(lp1643
I185001
aI200512
asS'rsdscs'
p1644
(lp1645
I185001
aI200512
asS'zg'
p1646
(lp1647
I195001
aI200512
asS'rlutcs'
p1648
(lp1649
I185001
aI200512
asS'prw'
p1650
(lp1651
I185001
aI200512
asS'pr'
p1652
(lp1653
I185001
aI200512
asS'rlut'
p1654
(lp1655
I185001
aI200512
asS'rlus'
p1656
(lp1657
I185001
aI200512
asS'sit'
p1658
(lp1659
I185001
aI200512
asS'tos'
p1660
(lp1661
I185001
aI200512
asS'ts'
p1662
(lp1663
I185001
aI200512
asS'sic'
p1664
(lp1665
I185001
aI200512
asS'zos'
p1666
(lp1667
I185001
aI200512
asS'clt'
p1668
(lp1669
I185001
aI200512
asS'ta'
p1670
(lp1671
I195001
aI200512
asS'lai'
p1672
(lp1673
I185001
aI200512
asS'rsdt'
p1674
(lp1675
I185001
aI200512
asS'hur'
p1676
(lp1677
I195001
aI200512
asS'hus'
p1678
(lp1679
I195001
aI200512
asS'clivi'
p1680
(lp1681
I185001
aI200512
asS'rsutcs'
p1682
(lp1683
I185001
aI200512
asS'sfcWind'
p1684
(lp1685
I185001
aI200512
asS'rsds'
p1686
(lp1687
I185001
aI200512
asS'rlds'
p1688
(lp1689
I185001
aI200512
asS'rsus'
p1690
(lp1691
I185001
aI200512
asS'wap'
p1692
(lp1693
I195001
aI200512
asS'ua'
p1694
(lp1695
I195001
aI200512
asS'rsut'
p1696
(lp1697
I185001
aI200512
assg61
(dp1698
S'tos'
p1699
(lp1700
I199501
aI200512
asS'zos'
p1701
(lp1702
I199501
aI200512
asS'cli'
p1703
(lp1704
I197501
aI200512
asS'clw'
p1705
(lp1706
I197501
aI200512
asS'cl'
p1707
(lp1708
I197501
aI200512
asssS'cccma/canam4'
p1709
(dp1710
g3
(dp1711
S'va'
p1712
(lp1713
I195001
aI200912
asS'ci'
p1714
(lp1715
I195001
aI200912
asS'sci'
p1716
(lp1717
I195001
aI200912
asS'rsds'
p1718
(lp1719
I195001
aI200912
asS'prc'
p1720
(lp1721
I195001
aI200912
asS'tas'
p1722
(lp1723
I195001
aI200912
asS'rsuscs'
p1724
(lp1725
I195001
aI200912
asS'uas'
p1726
(lp1727
I195001
aI200912
asS'huss'
p1728
(lp1729
I195001
aI200912
asS'hfss'
p1730
(lp1731
I195001
aI200912
asS'rlutcs'
p1732
(lp1733
I195001
aI200912
asS'evspsbl'
p1734
(lp1735
I195001
aI200912
asS'hfls'
p1736
(lp1737
I195001
aI200912
asS'rldscs'
p1738
(lp1739
I195001
aI200912
asS'pr'
p1740
(lp1741
I195001
aI200912
asS'ps'
p1742
(lp1743
I195001
aI200912
asS'rlus'
p1744
(lp1745
I195001
aI200912
asS'rlds'
p1746
(lp1747
I195001
aI200912
asS'ts'
p1748
(lp1749
I195001
aI200912
asS'clt'
p1750
(lp1751
I195001
aI200912
asS'vas'
p1752
(lp1753
I195001
aI200912
asS'rsdscs'
p1754
(lp1755
I195001
aI200912
asS'wap'
p1756
(lp1757
I195001
aI200912
asS'zg'
p1758
(lp1759
I195001
aI200912
asS'tasmin'
p1760
(lp1761
I195001
aI200912
asS'psl'
p1762
(lp1763
I195001
aI200912
asS'rlut'
p1764
(lp1765
I195001
aI200912
asS'hurs'
p1766
(lp1767
I195001
aI200912
asS'rsdt'
p1768
(lp1769
I195001
aI200912
asS'ta'
p1770
(lp1771
I195001
aI200912
asS'hur'
p1772
(lp1773
I195001
aI200912
asS'hus'
p1774
(lp1775
I195001
aI200912
asS'sbl'
p1776
(lp1777
I195001
aI200912
asS'clivi'
p1778
(lp1779
I195001
aI200912
asS'rsutcs'
p1780
(lp1781
I195001
aI200912
asS'mc'
p1782
(lp1783
I195001
aI200912
asS'rtmt'
p1784
(lp1785
I195001
aI200912
asS'cct'
p1786
(lp1787
I195001
aI200912
asS'prw'
p1788
(lp1789
I195001
aI200912
asS'sfcWind'
p1790
(lp1791
I195001
aI200912
asS'tauv'
p1792
(lp1793
I195001
aI200912
asS'clwvi'
p1794
(lp1795
I195001
aI200912
asS'tauu'
p1796
(lp1797
I195001
aI200912
asS'tasmax'
p1798
(lp1799
I195001
aI200912
asS'rsus'
p1800
(lp1801
I195001
aI200912
asS'ccb'
p1802
(lp1803
I195001
aI200912
asS'ua'
p1804
(lp1805
I195001
aI200912
asS'rsut'
p1806
(lp1807
I195001
aI200912
asS'prsn'
p1808
(lp1809
I195001
aI200912
assg61
(dp1810
S'clw'
p1811
(lp1812
I195001
aI200912
asS'cli'
p1813
(lp1814
I195001
aI200912
asS'cl'
p1815
(lp1816
I195001
aI200912
asssS'csiro/mk3.6'
p1817
(dp1818
g3
(dp1819
S'va'
p1820
(lp1821
I197901
aI200912
asS'hur'
p1822
(lp1823
I197901
aI200912
asS'prc'
p1824
(lp1825
I197901
aI200912
asS'tas'
p1826
(lp1827
I197901
aI200912
asS'rsuscs'
p1828
(lp1829
I197901
aI200912
asS'uas'
p1830
(lp1831
I197901
aI200912
asS'zg'
p1832
(lp1833
I197901
aI200912
asS'hfss'
p1834
(lp1835
I197901
aI200912
asS'rlutcs'
p1836
(lp1837
I197901
aI200912
asS'rsutcs'
p1838
(lp1839
I197901
aI200912
asS'hfls'
p1840
(lp1841
I197901
aI200912
asS'rldscs'
p1842
(lp1843
I197901
aI200912
asS'pr'
p1844
(lp1845
I197901
aI200912
asS'rlut'
p1846
(lp1847
I197901
aI200912
asS'rlus'
p1848
(lp1849
I197901
aI200912
asS'rlds'
p1850
(lp1851
I197901
aI200912
asS'ts'
p1852
(lp1853
I197901
aI200912
asS'prw'
p1854
(lp1855
I197901
aI200912
asS'clt'
p1856
(lp1857
I197901
aI200912
asS'vas'
p1858
(lp1859
I197901
aI200912
asS'rsdscs'
p1860
(lp1861
I197901
aI200912
asS'od550aer'
p1862
(lp1863
I197901
aI200912
asS'huss'
p1864
(lp1865
I197901
aI200912
asS'tasmin'
p1866
(lp1867
I197901
aI200912
asS'psl'
p1868
(lp1869
I197901
aI200912
asS'ps'
p1870
(lp1871
I197901
aI200912
asS'hurs'
p1872
(lp1873
I197901
aI200912
asS'rsdt'
p1874
(lp1875
I197901
aI200912
asS'rsds'
p1876
(lp1877
I197901
aI200912
asS'hus'
p1878
(lp1879
I197901
aI200912
asS'clivi'
p1880
(lp1881
I197901
aI200912
asS'mc'
p1882
(lp1883
I197901
aI200912
asS'rtmt'
p1884
(lp1885
I197901
aI200912
asS'ta'
p1886
(lp1887
I197901
aI200912
asS'evspsbl'
p1888
(lp1889
I197901
aI200912
asS'sfcWind'
p1890
(lp1891
I197901
aI200912
asS'tauv'
p1892
(lp1893
I197901
aI200912
asS'clwvi'
p1894
(lp1895
I197901
aI200912
asS'tauu'
p1896
(lp1897
I197901
aI200912
asS'tasmax'
p1898
(lp1899
I197901
aI200912
asS'rsus'
p1900
(lp1901
I197901
aI200912
asS'wap'
p1902
(lp1903
I197901
aI200912
asS'ua'
p1904
(lp1905
I197901
aI200912
asS'rsut'
p1906
(lp1907
I197901
aI200912
asS'prsn'
p1908
(lp1909
I197901
aI200912
assg61
(dp1910
S'clw'
p1911
(lp1912
I199901
aI200912
asS'cli'
p1913
(lp1914
I197901
aI200912
asS'cl'
p1915
(lp1916
I197001
aI200512
asssS'fub-dwd/ssmi-meris'
p1917
(dp1918
g3
(dp1919
S'prw'
p1920
(lp1921
I200301
aI200812
asssS'ncc/noresm'
p1922
(dp1923
g3
(dp1924
S'hur'
p1925
(lp1926
I195001
aI200512
asS'rsuscs'
p1927
(lp1928
I185001
aI200512
asS'rsdscs'
p1929
(lp1930
I185001
aI200512
asS'zg'
p1931
(lp1932
I195001
aI200512
asS'rlutcs'
p1933
(lp1934
I185001
aI200512
asS'rsutcs'
p1935
(lp1936
I185001
aI200512
asS'rldscs'
p1937
(lp1938
I185001
aI200512
asS'pr'
p1939
(lp1940
I199501
aI200512
asS'rlut'
p1941
(lp1942
I185001
aI200512
asS'rlus'
p1943
(lp1944
I185001
aI200512
asS'rlds'
p1945
(lp1946
I185001
aI200512
asS'ts'
p1947
(lp1948
I199501
aI200512
asS'sic'
p1949
(lp1950
I185001
aI200512
asS'zos'
p1951
(lp1952
I185001
aI200512
asS'clt'
p1953
(lp1954
I199501
aI200512
asS'vas'
p1955
(lp1956
I185001
aI200512
asS'uas'
p1957
(lp1958
I185001
aI200512
asS'od550aer'
p1959
(lp1960
I185001
aI200512
asS'lai'
p1961
(lp1962
I185001
aI200512
asS'rsdt'
p1963
(lp1964
I185001
aI200512
asS'ta'
p1965
(lp1966
I195001
aI200512
asS'rsds'
p1967
(lp1968
I185001
aI200512
asS'hus'
p1969
(lp1970
I195001
aI200512
asS'cct'
p1971
(lp1972
I185001
aI200512
asS'tos'
p1973
(lp1974
I185001
aI200512
asS'rsus'
p1975
(lp1976
I185001
aI200512
asS'wap'
p1977
(lp1978
I195001
aI200512
asS'rsut'
p1979
(lp1980
I185001
aI200512
assg61
(dp1981
S'tos'
p1982
(lp1983
I199501
aI200512
asS'clw'
p1984
(lp1985
I195001
aI200512
asS'zos'
p1986
(lp1987
I199501
aI200512
asS'cli'
p1988
(lp1989
I195001
aI200512
asS'cl'
p1990
(lp1991
I195001
aI200512
asssS'miroc/miroc5'
p1992
(dp1993
g3
(dp1994
S'va'
p1995
(lp1996
I197901
aI200812
asS'rsds'
p1997
(lp1998
I197901
aI200812
asS'prc'
p1999
(lp2000
I197901
aI200812
asS'tas'
p2001
(lp2002
I197901
aI200812
asS'prsn'
p2003
(lp2004
I197901
aI200812
asS'rsuscs'
p2005
(lp2006
I197901
aI200812
asS'rsdscs'
p2007
(lp2008
I197901
aI200812
asS'zg'
p2009
(lp2010
I197901
aI200812
asS'hfss'
p2011
(lp2012
I197901
aI200812
asS'rlutcs'
p2013
(lp2014
I197901
aI200812
asS'rsutcs'
p2015
(lp2016
I197901
aI200812
asS'hfls'
p2017
(lp2018
I197901
aI200812
asS'co2mass'
p2019
(lp2020
I197901
aI200812
asS'rldscs'
p2021
(lp2022
I197901
aI200812
asS'pr'
p2023
(lp2024
I197901
aI200812
asS'rlut'
p2025
(lp2026
I197901
aI200812
asS'n2oglobal'
p2027
(lp2028
I197901
aI200812
asS'tasmin'
p2029
(lp2030
I197901
aI200812
asS'rlus'
p2031
(lp2032
I197901
aI200812
asS'rlds'
p2033
(lp2034
I197901
aI200812
asS'ts'
p2035
(lp2036
I197901
aI200812
asS'prw'
p2037
(lp2038
I197901
aI200812
asS'clt'
p2039
(lp2040
I197901
aI200812
asS'vas'
p2041
(lp2042
I197901
aI200812
asS'uas'
p2043
(lp2044
I197901
aI200812
asS'wap'
p2045
(lp2046
I197901
aI200812
asS'hcfc22global'
p2047
(lp2048
I197901
aI200812
asS'huss'
p2049
(lp2050
I197901
aI200812
asS'lai'
p2051
(lp2052
I197901
aI200812
asS'psl'
p2053
(lp2054
I197901
aI200812
asS'ps'
p2055
(lp2056
I197901
aI200812
asS'hurs'
p2057
(lp2058
I197901
aI200812
asS'rsdt'
p2059
(lp2060
I197901
aI200812
asS'ta'
p2061
(lp2062
I197901
aI200812
asS'ch4global'
p2063
(lp2064
I197901
aI200812
asS'hur'
p2065
(lp2066
I197901
aI200812
asS'hus'
p2067
(lp2068
I197901
aI200812
asS'tro3'
p2069
(lp2070
I197901
aI200812
asS'clivi'
p2071
(lp2072
I197901
aI200812
asS'cfc11global'
p2073
(lp2074
I197901
aI200812
asS'mc'
p2075
(lp2076
I197901
aI200812
asS'rtmt'
p2077
(lp2078
I197901
aI200812
asS'cct'
p2079
(lp2080
I197901
aI200812
asS'cfc113global'
p2081
(lp2082
I197901
aI200812
asS'evspsbl'
p2083
(lp2084
I197901
aI200812
asS'sfcWind'
p2085
(lp2086
I197901
aI200812
asS'tauv'
p2087
(lp2088
I197901
aI200812
asS'clwvi'
p2089
(lp2090
I197901
aI200812
asS'tauu'
p2091
(lp2092
I197901
aI200812
asS'tasmax'
p2093
(lp2094
I197901
aI200812
asS'rsus'
p2095
(lp2096
I197901
aI200812
asS'od550aer'
p2097
(lp2098
I197901
aI200812
asS'ua'
p2099
(lp2100
I197901
aI200812
asS'cfc12global'
p2101
(lp2102
I197901
aI200812
asS'rsut'
p2103
(lp2104
I197901
aI200812
asS'ccb'
p2105
(lp2106
I197901
aI200812
assg61
(dp2107
S'clw'
p2108
(lp2109
I197901
aI200812
asS'cli'
p2110
(lp2111
I197901
aI199812
asS'cl'
p2112
(lp2113
I197001
aI201212
asssS'nasa/gpcp'
p2114
(dp2115
g3
(dp2116
S'pr'
p2117
(lp2118
I197901
aI201106
asssS'wrf/ra-cam'
p2119
(dp2120
g3
(dp2121
S'pr'
p2122
(lp2123
I200401
aI200412
asS'rlut'
p2124
(lp2125
I200401
aI200412
asS'th'
p2126
(lp2127
I200401
aI200412
asS'cl'
p2128
(lp2129
I200401
aI200412
asS'va'
p2130
(lp2131
I200401
aI200412
asg165
(lp2132
I200401
aI200412
asS'hus'
p2133
(lp2134
I200401
aI200412
asS'ua'
p2135
(lp2136
I200401
aI200412
asS'rsut'
p2137
(lp2138
I200401
aI200412
asssS'nasa/grace'
p2139
(dp2140
g3
(dp2141
S'zl'
p2142
(lp2143
I200204
aI201701
asS'zo'
p2144
(lp2145
I200208
aI201612
asssS'wrf/mp-wdm'
p2146
(dp2147
g3
(dp2148
S'pr'
p2149
(lp2150
I200401
aI200412
asS'rlut'
p2151
(lp2152
I200401
aI200412
asS'th'
p2153
(lp2154
I200401
aI200412
asS'cl'
p2155
(lp2156
I200401
aI200412
asS'va'
p2157
(lp2158
I200401
aI200412
asg165
(lp2159
I200401
aI200412
asS'hus'
p2160
(lp2161
I200401
aI200412
asS'ua'
p2162
(lp2163
I200401
aI200412
asS'rsut'
p2164
(lp2165
I200401
aI200412
asssS'ecmwf/interim'
p2166
(dp2167
g3
(dp2168
S'va'
p2169
(lp2170
I197901
aI201512
asS'cl'
p2171
(lp2172
I197901
aI201512
asS'tos'
p2173
(lp2174
I197901
aI201402
asS'uas'
p2175
(lp2176
I197901
aI201605
asS'gz'
p2177
(lp2178
I197901
aI201512
asS'sfcWind'
p2179
(lp2180
I197901
aI201605
asS'hur'
p2181
(lp2182
I197901
aI201402
asS'hus'
p2183
(lp2184
I197901
aI201512
asS'clt'
p2185
(lp2186
I197901
aI201404
asS'vas'
p2187
(lp2188
I197901
aI201605
asS'ta'
p2189
(lp2190
I197901
aI201512
asS'ua'
p2191
(lp2192
I197901
aI201512
asS'wap'
p2193
(lp2194
I197901
aI201402
asss.